; Function Attrs: mustprogress uwtable
define noundef ptr @_ZN7rocksdb22BlockCacheTierMetadata6InsertERKNS_5SliceERKNS_19LogicalBlockAddressE(ptr noundef nonnull align 8 dereferenceable(96) %0, ptr noundef nonnull align 8 dereferenceable(16) %1, ptr noundef nonnull readonly align 4 captures(none) dereferenceable(12) %2) local_unnamed_addr #0 align 2 personality ptr @__gxx_personality_v0 {
  %4 = alloca %"class.std::unique_ptr.37", align 8
  %5 = alloca ptr, align 8
  call void @llvm.lifetime.start.p0(i64 8, ptr nonnull %4) #15
  %6 = tail call noalias noundef nonnull dereferenceable(48) ptr @_Znwm(i64 noundef 48) #14
  invoke void @_ZNK7rocksdb5Slice8ToStringB5cxx11Eb(ptr dead_on_unwind nonnull writable sret(%"class.std::__cxx11::basic_string") align 8 dereferenceable(44) %6, ptr noundef nonnull align 8 dereferenceable(16) %1, i1 noundef zeroext false)
          to label %7 unwind label %12

7:                                                ; preds = %3
  %8 = getelementptr inbounds nuw i8, ptr %6, i64 32
  tail call void @llvm.memcpy.p0.p0.i64(ptr noundef nonnull align 8 dereferenceable(12) %8, ptr noundef nonnull align 4 dereferenceable(12) %2, i64 12, i1 false), !tbaa.struct !95
  store ptr %6, ptr %4, align 8, !tbaa !93
  %9 = getelementptr inbounds nuw i8, ptr %0, i64 56
  call void @llvm.lifetime.start.p0(i64 8, ptr nonnull %5) #15
  store ptr %6, ptr %5, align 8, !tbaa !93
  %10 = invoke noundef zeroext i1 @_ZN7rocksdb9HashTableIPNS_9BlockInfoENS_22BlockCacheTierMetadata4HashENS3_5EqualEE6InsertERKS2_(ptr noundef nonnull align 8 dereferenceable(40) %9, ptr noundef nonnull align 8 dereferenceable(8) %5)
          to label %11 unwind label %14

11:                                               ; preds = %7
  call void @llvm.lifetime.end.p0(i64 8, ptr nonnull %5) #15
  br i1 %10, label %_ZNSt10unique_ptrIN7rocksdb9BlockInfoESt14default_deleteIS1_EED2Ev.exit, label %16

12:                                               ; preds = %3
  %13 = landingpad { ptr, i32 }
          cleanup
  tail call void @_ZdlPvm(ptr noundef nonnull %6, i64 noundef 48) #17
  br label %25

14:                                               ; preds = %7
  %15 = landingpad { ptr, i32 }
          cleanup
  call void @llvm.lifetime.end.p0(i64 8, ptr nonnull %5) #15
  call void @_ZNSt10unique_ptrIN7rocksdb9BlockInfoESt14default_deleteIS1_EED2Ev(ptr noundef nonnull align 8 dereferenceable(8) %4) #15
  br label %25

16:                                               ; preds = %11
  %17 = load ptr, ptr %6, align 8, !tbaa !69
  %18 = getelementptr inbounds nuw i8, ptr %6, i64 16
  %19 = icmp eq ptr %17, %18
  br i1 %19, label %_ZNKSt7__cxx1112basic_stringIcSt11char_traitsIcESaIcEE11_M_is_localEv.exit.thread.i.i.i.i.i, label %_ZNKSt7__cxx1112basic_stringIcSt11char_traitsIcESaIcEE11_M_is_localEv.exit.i.i.i.i.i

_ZNKSt7__cxx1112basic_stringIcSt11char_traitsIcESaIcEE11_M_is_localEv.exit.thread.i.i.i.i.i: ; preds = %16
  %20 = getelementptr inbounds nuw i8, ptr %6, i64 8
  %21 = load i64, ptr %20, align 8, !tbaa !64
  %22 = icmp ult i64 %21, 16
  call void @llvm.assume(i1 %22)
  br label %_ZNKSt14default_deleteIN7rocksdb9BlockInfoEEclEPS1_.exit.i

_ZNKSt7__cxx1112basic_stringIcSt11char_traitsIcESaIcEE11_M_is_localEv.exit.i.i.i.i.i: ; preds = %16
  %23 = load i64, ptr %18, align 8, !tbaa !65
  %24 = add i64 %23, 1
  call void @_ZdlPvm(ptr noundef %17, i64 noundef %24) #17
  br label %_ZNKSt14default_deleteIN7rocksdb9BlockInfoEEclEPS1_.exit.i

_ZNKSt14default_deleteIN7rocksdb9BlockInfoEEclEPS1_.exit.i: ; preds = %_ZNKSt7__cxx1112basic_stringIcSt11char_traitsIcESaIcEE11_M_is_localEv.exit.i.i.i.i.i, %_ZNKSt7__cxx1112basic_stringIcSt11char_traitsIcESaIcEE11_M_is_localEv.exit.thread.i.i.i.i.i
  call void @_ZdlPvm(ptr noundef nonnull %6, i64 noundef 48) #17
  br label %_ZNSt10unique_ptrIN7rocksdb9BlockInfoESt14default_deleteIS1_EED2Ev.exit

_ZNSt10unique_ptrIN7rocksdb9BlockInfoESt14default_deleteIS1_EED2Ev.exit: ; preds = %11, %_ZNKSt14default_deleteIN7rocksdb9BlockInfoEEclEPS1_.exit.i
  %.0610 = phi ptr [ null, %_ZNKSt14default_deleteIN7rocksdb9BlockInfoEEclEPS1_.exit.i ], [ %6, %11 ]
  call void @llvm.lifetime.end.p0(i64 8, ptr nonnull %4) #15
  ret ptr %.0610

25:                                               ; preds = %14, %12
  %.pn = phi { ptr, i32 } [ %15, %14 ], [ %13, %12 ]
  call void @llvm.lifetime.end.p0(i64 8, ptr nonnull %4) #15
  resume { ptr, i32 } %.pn
}